target datalayout = "e-m:e-p270:32:32-p271:32:32-p272:64:64-i64:64-i128:128-f80:128-n8:16:32:64-S128"
target triple = "x86_64-unknown-linux-gnu"

%"class.icu_75::TextTrieMap" = type { ptr, i8, ptr, i32, i32, ptr, i8, ptr }

@_ZTVN6icu_7511TextTrieMapE = unnamed_addr constant { [4 x ptr] } { [4 x ptr] [ptr null, ptr @_ZTIN6icu_7511TextTrieMapE, ptr @_ZN6icu_7511TextTrieMapD1Ev, ptr @_ZN6icu_7511TextTrieMapD0Ev] }, align 8

; Function Attrs: mustprogress nounwind uwtable
define void @_ZN6icu_7511TextTrieMapC2EaPFvPvE(ptr noundef nonnull align 8 dereferenceable(56) %this, i8 noundef signext %ignoreCase, ptr noundef %valueDeleter) unnamed_addr #0 align 2 {
entry:
  %this.addr = alloca ptr, align 8
  %ignoreCase.addr = alloca i8, align 1
  %valueDeleter.addr = alloca ptr, align 8
  store ptr %this, ptr %this.addr, align 8
  store i8 %ignoreCase, ptr %ignoreCase.addr, align 1
  store ptr %valueDeleter, ptr %valueDeleter.addr, align 8
  %this1 = load ptr, ptr %this.addr, align 8
  store ptr getelementptr inbounds ({ [4 x ptr] }, ptr @_ZTVN6icu_7511TextTrieMapE, i32 0, i32 0, i32 2), ptr %this1, align 8
  %fIgnoreCase = getelementptr inbounds %"class.icu_75::TextTrieMap", ptr %this1, i32 0, i32 1
  %0 = load i8, ptr %ignoreCase.addr, align 1
  store i8 %0, ptr %fIgnoreCase, align 8
  %fNodes = getelementptr inbounds %"class.icu_75::TextTrieMap", ptr %this1, i32 0, i32 2
  store ptr null, ptr %fNodes, align 8
  %fNodesCapacity = getelementptr inbounds %"class.icu_75::TextTrieMap", ptr %this1, i32 0, i32 3
  store i32 0, ptr %fNodesCapacity, align 8
  %fNodesCount = getelementptr inbounds %"class.icu_75::TextTrieMap", ptr %this1, i32 0, i32 4
  store i32 0, ptr %fNodesCount, align 4
  %fLazyContents = getelementptr inbounds %"class.icu_75::TextTrieMap", ptr %this1, i32 0, i32 5
  store ptr null, ptr %fLazyContents, align 8
  %fIsEmpty = getelementptr inbounds %"class.icu_75::TextTrieMap", ptr %this1, i32 0, i32 6
  store i8 1, ptr %fIsEmpty, align 8
  %fValueDeleter = getelementptr inbounds %"class.icu_75::TextTrieMap", ptr %this1, i32 0, i32 7
  %1 = load ptr, ptr %valueDeleter.addr, align 8
  store ptr %1, ptr %fValueDeleter, align 8
  ret void
}