; Function Attrs: mustprogress nofree norecurse nosync nounwind willreturn memory(argmem: write) uwtable
define void @_ZN6icu_7511TextTrieMapC2EaPFvPvE(ptr nocapture noundef nonnull writeonly align 8 dereferenceable(56) %this, i8 noundef signext %ignoreCase, ptr noundef %valueDeleter) unnamed_addr #6 align 2 {
entry:
  store ptr getelementptr inbounds ({ [4 x ptr] }, ptr @_ZTVN6icu_7511TextTrieMapE, i64 0, i32 0, i64 2), ptr %this, align 8
  %fIgnoreCase = getelementptr inbounds i8, ptr %this, i64 8
  store i8 %ignoreCase, ptr %fIgnoreCase, align 8
  %fNodes = getelementptr inbounds i8, ptr %this, i64 16
  %fIsEmpty = getelementptr inbounds i8, ptr %this, i64 40
  tail call void @llvm.memset.p0.i64(ptr noundef nonnull align 8 dereferenceable(24) %fNodes, i8 0, i64 24, i1 false)
  store i8 1, ptr %fIsEmpty, align 8
  %fValueDeleter = getelementptr inbounds i8, ptr %this, i64 48
  store ptr %valueDeleter, ptr %fValueDeleter, align 8
  ret void
}